; ModuleID = 'probe6.92e8d2b4-cgu.0'
source_filename = "probe6.92e8d2b4-cgu.0"
target datalayout = "e-m:o-i64:64-i128:128-n32:64-S128"
target triple = "arm64-apple-macosx11.0.0"

@alloc3 = private unnamed_addr constant <{ [75 x i8] }> <{ [75 x i8] c"/rustc/c0983a9aac889d16722a12602ac678051e62c3fb/library/core/src/num/mod.rs" }>, align 1
@alloc4 = private unnamed_addr constant <{ ptr, [16 x i8] }> <{ ptr @alloc3, [16 x i8] c"K\00\00\00\00\00\00\00\96\03\00\00\05\00\00\00" }>, align 8
@str.0 = internal constant [25 x i8] c"attempt to divide by zero"

; probe6::probe
; Function Attrs: uwtable
define void @_ZN6probe65probe17h07349742eaae4a35E() unnamed_addr #0 {
start:
  %0 = call i1 @llvm.expect.i1(i1 false, i1 false)
  br i1 %0, label %panic.i, label %"_ZN4core3num21_$LT$impl$u20$u32$GT$10div_euclid17h4faf8dfbf8b2d43dE.exit"

panic.i:                                          ; preds = %start
; call core::panicking::panic
  call void @_ZN4core9panicking5panic17hfd4d9fdcc22dc318E(ptr align 1 @str.0, i64 25, ptr align 8 @alloc4) #3
  unreachable

"_ZN4core3num21_$LT$impl$u20$u32$GT$10div_euclid17h4faf8dfbf8b2d43dE.exit": ; preds = %start
  br label %bb1

bb1:                                              ; preds = %"_ZN4core3num21_$LT$impl$u20$u32$GT$10div_euclid17h4faf8dfbf8b2d43dE.exit"
  ret void
}

; Function Attrs: nocallback nofree nosync nounwind readnone willreturn
declare i1 @llvm.expect.i1(i1, i1) #1

; core::panicking::panic
; Function Attrs: cold noinline noreturn uwtable
declare void @_ZN4core9panicking5panic17hfd4d9fdcc22dc318E(ptr align 1, i64, ptr align 8) unnamed_addr #2

attributes #0 = { uwtable "frame-pointer"="non-leaf" "target-cpu"="apple-a14" }
attributes #1 = { nocallback nofree nosync nounwind readnone willreturn }
attributes #2 = { cold noinline noreturn uwtable "frame-pointer"="non-leaf" "target-cpu"="apple-a14" }
attributes #3 = { noreturn }

!llvm.module.flags = !{!0}

!0 = !{i32 7, !"PIC Level", i32 2}
